TN:
SF:/home/ana/project_clearpath/libs/debris/debris_detection.cpp
FN:31,_ZN14DebrisDetectorC2Ev
FN:60,_ZN14DebrisDetector18navigate_to_debrisEv
FN:87,_ZN14DebrisDetector22process_image_callbackERKSt10shared_ptrIKN11sensor_msgs3msg6Image_ISaIvEEEE
FN:191,_ZN14DebrisDetector25process_odometry_callbackESt10shared_ptrIN8nav_msgs3msg9Odometry_ISaIvEEEE
FN:203,_ZN14DebrisDetector16move2next_debrisEv
FN:235,_ZN14DebrisDetector24detect_and_handle_debrisEv
FNDA:3,_ZN14DebrisDetector24detect_and_handle_debrisEv
FNDA:18,_ZN14DebrisDetectorC2Ev
FNDA:15,_ZN14DebrisDetector18navigate_to_debrisEv
FNDA:12,_ZN14DebrisDetector22process_image_callbackERKSt10shared_ptrIKN11sensor_msgs3msg6Image_ISaIvEEEE
FNDA:3,_ZN14DebrisDetector16move2next_debrisEv
FNDA:3,_ZN14DebrisDetector25process_odometry_callbackESt10shared_ptrIN8nav_msgs3msg9Odometry_ISaIvEEEE
FNF:6
FNH:6
DA:31,18
DA:33,18
DA:34,18
DA:36,18
DA:38,72
DA:40,54
DA:42,72
DA:44,54
DA:47,18
DA:48,18
DA:49,18
DA:50,18
DA:51,18
DA:52,18
DA:53,18
DA:54,18
DA:60,15
DA:61,15
DA:63,15
DA:64,3
DA:65,3
DA:66,12
DA:67,3
DA:68,3
DA:69,9
DA:70,3
DA:71,3
DA:72,6
DA:73,6
DA:74,6
DA:76,15
DA:77,15
DA:87,12
DA:90,12
DA:91,12
DA:94,12
DA:95,12
DA:98,12
DA:101,12
DA:103,12
DA:106,12
DA:108,12
DA:110,12
DA:112,12
DA:116,12
DA:117,12
DA:120,12
DA:121,12
DA:124,12
DA:126,12
DA:127,9
DA:128,9
DA:130,18
DA:131,9
DA:133,9
DA:134,9
DA:135,9
DA:139,9
DA:142,9
DA:143,9
DA:144,9
DA:147,9
DA:148,3
DA:149,3
DA:150,6
DA:151,3
DA:152,3
DA:154,3
DA:155,3
DA:156,3
DA:157,3
DA:161,9
DA:165,9
DA:168,9
DA:172,18
DA:173,9
DA:174,9
DA:177,9
DA:178,9
DA:179,12
DA:180,0
DA:181,0
DA:182,12
DA:191,3
DA:194,3
DA:195,6
DA:196,3
DA:199,3
DA:200,3
DA:201,3
DA:203,3
DA:204,3
DA:206,6
DA:207,3
DA:208,3
DA:209,3
DA:210,3
DA:211,3
DA:213,3
DA:214,3
DA:216,3
DA:221,0
DA:223,0
DA:235,3
DA:236,3
DA:239,3
DA:241,3
DA:242,3
DA:243,3
DA:245,3
DA:247,3
DA:249,3
DA:250,3
DA:251,3
DA:252,3
DA:254,3
DA:257,0
LF:117
LH:112
end_of_record
TN:
SF:/home/ana/project_clearpath/libs/debris/debris_detection.hpp
FN:84,_ZN14DebrisDetector18is_debris_detectedEv
FN:85,_ZN14DebrisDetector23get_current_orientationEv
FN:86,_ZN14DebrisDetector15get_rotate_leftEv
FN:87,_ZN14DebrisDetector16get_rotate_rightEv
FN:88,_ZNK14DebrisDetector8get_stopEv
FN:89,_ZNK14DebrisDetector16get_move_forwardEv
FN:92,_ZN14DebrisDetector16set_rotate_rightEb
FN:93,_ZN14DebrisDetector15set_rotate_leftEb
FN:94,_ZN14DebrisDetector16set_move_forwardEb
FN:95,_ZN14DebrisDetector8set_stopEb
FN:96,_ZN14DebrisDetector19set_debris_detectedEb
FN:97,_ZN14DebrisDetector23set_current_orientationEd
FN:101,_ZN14DebrisDetector22set_velocity_publisherERKSt10shared_ptrIN6rclcpp9PublisherIN13geometry_msgs3msg6Twist_ISaIvEEES6_EEE
FNDA:3,_ZN14DebrisDetector23get_current_orientationEv
FNDA:12,_ZN14DebrisDetector16set_rotate_rightEb
FNDA:3,_ZNK14DebrisDetector8get_stopEv
FNDA:12,_ZNK14DebrisDetector16get_move_forwardEv
FNDA:12,_ZN14DebrisDetector15set_rotate_leftEb
FNDA:3,_ZN14DebrisDetector23set_current_orientationEd
FNDA:12,_ZN14DebrisDetector16get_rotate_rightEv
FNDA:12,_ZN14DebrisDetector18is_debris_detectedEv
FNDA:12,_ZN14DebrisDetector15get_rotate_leftEv
FNDA:6,_ZN14DebrisDetector19set_debris_detectedEb
FNDA:12,_ZN14DebrisDetector16set_move_forwardEb
FNDA:15,_ZN14DebrisDetector8set_stopEb
FNDA:3,_ZN14DebrisDetector22set_velocity_publisherERKSt10shared_ptrIN6rclcpp9PublisherIN13geometry_msgs3msg6Twist_ISaIvEEES6_EEE
FNF:13
FNH:13
DA:84,12
DA:85,3
DA:86,12
DA:87,12
DA:88,3
DA:89,12
DA:92,12
DA:93,12
DA:94,12
DA:95,15
DA:96,6
DA:97,3
DA:101,3
DA:102,3
DA:103,3
LF:15
LH:15
end_of_record
TN:
SF:/home/ana/project_clearpath/libs/debris/debris_remover.cpp
FN:18,_ZN13DebrisRemoverC2Ev
FN:25,_ZN13DebrisRemover13remove_debrisENSt7__cxx1112basic_stringIcSt11char_traitsIcESaIcEEE
FNDA:6,_ZN13DebrisRemover13remove_debrisENSt7__cxx1112basic_stringIcSt11char_traitsIcESaIcEEE
FNDA:12,_ZN13DebrisRemoverC2Ev
FNF:2
FNH:2
DA:18,12
DA:20,12
DA:22,12
DA:23,12
DA:25,6
DA:26,6
DA:27,3
DA:28,0
DA:29,0
DA:31,3
DA:32,3
DA:35,3
DA:36,3
DA:38,3
DA:40,3
DA:42,3
DA:43,3
LF:17
LH:15
end_of_record
TN:
SF:/home/ana/project_clearpath/libs/debris/debris_remover.hpp
FN:34,_ZNK13DebrisRemover18get_debris_counterEv
FN:37,_ZN13DebrisRemover18set_debris_counterEi
FN:40,_ZN13DebrisRemover18set_unspawn_clientESt10shared_ptrIN6rclcpp6ClientIN11gazebo_msgs3srv12DeleteEntityEEEE
FN:45,_ZN13DebrisRemover22set_remove_debris_nodeESt10shared_ptrIN6rclcpp4NodeEE
FNDA:3,_ZN13DebrisRemover18set_debris_counterEi
FNDA:6,_ZNK13DebrisRemover18get_debris_counterEv
FNDA:6,_ZN13DebrisRemover22set_remove_debris_nodeESt10shared_ptrIN6rclcpp4NodeEE
FNDA:6,_ZN13DebrisRemover18set_unspawn_clientESt10shared_ptrIN6rclcpp6ClientIN11gazebo_msgs3srv12DeleteEntityEEEE
FNF:4
FNH:4
DA:34,6
DA:37,3
DA:40,6
DA:41,6
DA:42,6
DA:45,6
DA:46,6
DA:47,6
LF:8
LH:8
end_of_record
TN:
SF:/home/ana/project_clearpath/test/test_level1.cpp
FN:23,_ZN18DebrisDetectorTest5SetUpEv
FN:28,_ZN18DebrisDetectorTest8TearDownEv
FN:32,_ZN18DebrisDetectorTest35createTestImageWithDebrisAtPositionEii
FN:40,_ZN18DebrisDetectorTest28createTestImageWithoutDebrisEv
FN:45,_ZN18DebrisDetectorTest22convertCvMatToImageMsgERKN2cv3MatE
FN:61,_ZN17DebrisRemoverTest5SetUpEv
FN:68,_ZN17DebrisRemoverTest8TearDownEv
FN:71,_ZN45DebrisRemoverTest_ServiceUnavailableTest_TestD2Ev
FN:71,_ZN45DebrisRemoverTest_ServiceUnavailableTest_Test8TestBodyEv
FN:71,_ZN45DebrisRemoverTest_ServiceUnavailableTest_TestD0Ev
FN:71,_ZN45DebrisRemoverTest_ServiceUnavailableTest_TestC2Ev
FN:88,_ZN39DebrisRemoverTest_RemoveDebrisTest_Test8TestBodyEv
FN:88,_ZN39DebrisRemoverTest_RemoveDebrisTest_TestD0Ev
FN:88,_ZN39DebrisRemoverTest_RemoveDebrisTest_TestD2Ev
FN:88,_ZN39DebrisRemoverTest_RemoveDebrisTest_TestC2Ev
FN:101,_ZZN39DebrisRemoverTest_RemoveDebrisTest_Test8TestBodyEvENKUlSt10shared_ptrIN11gazebo_msgs3srv21DeleteEntity_Request_ISaIvEEEES0_INS2_22DeleteEntity_Response_IS4_EEEE_clES6_S9_
FN:118,_ZN38DebrisRemoverTest_ConstructorTest_Test8TestBodyEv
FN:118,_ZN38DebrisRemoverTest_ConstructorTest_TestD2Ev
FN:118,_ZN38DebrisRemoverTest_ConstructorTest_TestC2Ev
FN:118,_ZN38DebrisRemoverTest_ConstructorTest_TestD0Ev
FN:124,_ZN40DebrisRemoverTest_DebrisCounterTest_TestD2Ev
FN:124,_ZN40DebrisRemoverTest_DebrisCounterTest_TestC2Ev
FN:124,_ZN40DebrisRemoverTest_DebrisCounterTest_TestD0Ev
FN:124,_ZN40DebrisRemoverTest_DebrisCounterTest_Test8TestBodyEv
FN:131,_ZN44DebrisDetectorTest_DetectsDebrisInImage_Test8TestBodyEv
FN:131,_ZN44DebrisDetectorTest_DetectsDebrisInImage_TestD2Ev
FN:131,_ZN44DebrisDetectorTest_DetectsDebrisInImage_TestD0Ev
FN:131,_ZN44DebrisDetectorTest_DetectsDebrisInImage_TestC2Ev
FN:167,_ZN47DebrisDetectorTest_NoDebrisDetectedInImage_TestD2Ev
FN:167,_ZN47DebrisDetectorTest_NoDebrisDetectedInImage_TestC2Ev
FN:167,_ZN47DebrisDetectorTest_NoDebrisDetectedInImage_Test8TestBodyEv
FN:167,_ZN47DebrisDetectorTest_NoDebrisDetectedInImage_TestD0Ev
FN:177,_ZN50DebrisDetectorTest_ProcessesOdometryCorrectly_TestD2Ev
FN:177,_ZN50DebrisDetectorTest_ProcessesOdometryCorrectly_TestC2Ev
FN:177,_ZN50DebrisDetectorTest_ProcessesOdometryCorrectly_TestD0Ev
FN:177,_ZN50DebrisDetectorTest_ProcessesOdometryCorrectly_Test8TestBodyEv
FN:189,_ZN44DebrisDetectorTest_NavigateToDebrisTest_Test8TestBodyEv
FN:189,_ZN44DebrisDetectorTest_NavigateToDebrisTest_TestD2Ev
FN:189,_ZN44DebrisDetectorTest_NavigateToDebrisTest_TestD0Ev
FN:189,_ZN44DebrisDetectorTest_NavigateToDebrisTest_TestC2Ev
FN:196,_ZZN44DebrisDetectorTest_NavigateToDebrisTest_Test8TestBodyEvENKUlbbbbddE_clEbbbbdd
FN:210,_ZZZN44DebrisDetectorTest_NavigateToDebrisTest_Test8TestBodyEvENKUlbbbbddE_clEbbbbddENKUlSt10shared_ptrIN13geometry_msgs3msg6Twist_ISaIvEEEEE_clES7_
FN:230,_ZN49DebrisDetectorTest_DetectAndHandleDebrisTest_TestD0Ev
FN:230,_ZN49DebrisDetectorTest_DetectAndHandleDebrisTest_TestC2Ev
FN:230,_ZN49DebrisDetectorTest_DetectAndHandleDebrisTest_TestD2Ev
FN:230,_ZN49DebrisDetectorTest_DetectAndHandleDebrisTest_Test8TestBodyEv
FN:245,_ZN43DebrisDetectorTest_Move2NextDebrisTest_Test8TestBodyEv
FN:245,_ZN43DebrisDetectorTest_Move2NextDebrisTest_TestC2Ev
FN:245,_ZN43DebrisDetectorTest_Move2NextDebrisTest_TestD0Ev
FN:245,_ZN43DebrisDetectorTest_Move2NextDebrisTest_TestD2Ev
FN:254,main
FNDA:3,_ZN44DebrisDetectorTest_NavigateToDebrisTest_TestD2Ev
FNDA:18,_ZN18DebrisDetectorTest8TearDownEv
FNDA:3,_ZN40DebrisRemoverTest_DebrisCounterTest_TestD2Ev
FNDA:3,_ZN44DebrisDetectorTest_DetectsDebrisInImage_TestD0Ev
FNDA:12,_ZZN44DebrisDetectorTest_NavigateToDebrisTest_Test8TestBodyEvENKUlbbbbddE_clEbbbbdd
FNDA:3,_ZN47DebrisDetectorTest_NoDebrisDetectedInImage_TestD2Ev
FNDA:3,_ZN45DebrisRemoverTest_ServiceUnavailableTest_TestD0Ev
FNDA:3,_ZN40DebrisRemoverTest_DebrisCounterTest_TestC2Ev
FNDA:3,_ZN49DebrisDetectorTest_DetectAndHandleDebrisTest_Test8TestBodyEv
FNDA:3,_ZN38DebrisRemoverTest_ConstructorTest_Test8TestBodyEv
FNDA:3,_ZN44DebrisDetectorTest_DetectsDebrisInImage_Test8TestBodyEv
FNDA:3,_ZN44DebrisDetectorTest_DetectsDebrisInImage_TestD2Ev
FNDA:3,_ZN38DebrisRemoverTest_ConstructorTest_TestD2Ev
FNDA:3,_ZN49DebrisDetectorTest_DetectAndHandleDebrisTest_TestD0Ev
FNDA:3,_ZN50DebrisDetectorTest_ProcessesOdometryCorrectly_TestD2Ev
FNDA:3,_ZN39DebrisRemoverTest_RemoveDebrisTest_TestD0Ev
FNDA:3,_ZN39DebrisRemoverTest_RemoveDebrisTest_Test8TestBodyEv
FNDA:3,_ZN45DebrisRemoverTest_ServiceUnavailableTest_TestD2Ev
FNDA:3,_ZN44DebrisDetectorTest_NavigateToDebrisTest_Test8TestBodyEv
FNDA:3,_ZN49DebrisDetectorTest_DetectAndHandleDebrisTest_TestD2Ev
FNDA:9,_ZN18DebrisDetectorTest35createTestImageWithDebrisAtPositionEii
FNDA:3,_ZN38DebrisRemoverTest_ConstructorTest_TestC2Ev
FNDA:3,_ZN45DebrisRemoverTest_ServiceUnavailableTest_Test8TestBodyEv
FNDA:3,_ZN49DebrisDetectorTest_DetectAndHandleDebrisTest_TestC2Ev
FNDA:12,_ZZZN44DebrisDetectorTest_NavigateToDebrisTest_Test8TestBodyEvENKUlbbbbddE_clEbbbbddENKUlSt10shared_ptrIN13geometry_msgs3msg6Twist_ISaIvEEEEE_clES7_
FNDA:3,_ZN45DebrisRemoverTest_ServiceUnavailableTest_TestC2Ev
FNDA:3,_ZN40DebrisRemoverTest_DebrisCounterTest_TestD0Ev
FNDA:3,_ZN18DebrisDetectorTest28createTestImageWithoutDebrisEv
FNDA:3,_ZN47DebrisDetectorTest_NoDebrisDetectedInImage_TestC2Ev
FNDA:3,_ZN38DebrisRemoverTest_ConstructorTest_TestD0Ev
FNDA:3,_ZN50DebrisDetectorTest_ProcessesOdometryCorrectly_Test8TestBodyEv
FNDA:3,_ZN43DebrisDetectorTest_Move2NextDebrisTest_TestD0Ev
FNDA:3,_ZN44DebrisDetectorTest_NavigateToDebrisTest_TestC2Ev
FNDA:3,_ZZN39DebrisRemoverTest_RemoveDebrisTest_Test8TestBodyEvENKUlSt10shared_ptrIN11gazebo_msgs3srv21DeleteEntity_Request_ISaIvEEEES0_INS2_22DeleteEntity_Response_IS4_EEEE_clES6_S9_
FNDA:3,_ZN47DebrisDetectorTest_NoDebrisDetectedInImage_Test8TestBodyEv
FNDA:30,main
FNDA:12,_ZN18DebrisDetectorTest22convertCvMatToImageMsgERKN2cv3MatE
FNDA:3,_ZN43DebrisDetectorTest_Move2NextDebrisTest_TestD2Ev
FNDA:3,_ZN47DebrisDetectorTest_NoDebrisDetectedInImage_TestD0Ev
FNDA:18,_ZN18DebrisDetectorTest5SetUpEv
FNDA:12,_ZN17DebrisRemoverTest8TearDownEv
FNDA:3,_ZN40DebrisRemoverTest_DebrisCounterTest_Test8TestBodyEv
FNDA:12,_ZN17DebrisRemoverTest5SetUpEv
FNDA:3,_ZN43DebrisDetectorTest_Move2NextDebrisTest_Test8TestBodyEv
FNDA:3,_ZN44DebrisDetectorTest_DetectsDebrisInImage_TestC2Ev
FNDA:3,_ZN50DebrisDetectorTest_ProcessesOdometryCorrectly_TestC2Ev
FNDA:3,_ZN39DebrisRemoverTest_RemoveDebrisTest_TestC2Ev
FNDA:3,_ZN43DebrisDetectorTest_Move2NextDebrisTest_TestC2Ev
FNDA:3,_ZN39DebrisRemoverTest_RemoveDebrisTest_TestD2Ev
FNDA:3,_ZN44DebrisDetectorTest_NavigateToDebrisTest_TestD0Ev
FNDA:3,_ZN50DebrisDetectorTest_ProcessesOdometryCorrectly_TestD0Ev
FNF:51
FNH:51
DA:23,18
DA:24,18
DA:25,18
DA:26,18
DA:28,18
DA:32,9
DA:33,9
DA:34,9
DA:35,9
DA:36,9
DA:37,0
DA:40,3
DA:41,6
DA:45,12
DA:48,24
DA:50,12
DA:61,12
DA:62,12
DA:63,12
DA:64,12
DA:65,12
DA:68,12
DA:71,12
DA:73,6
DA:76,3
DA:79,3
DA:82,3
DA:85,3
DA:86,3
DA:88,12
DA:90,6
DA:93,3
DA:96,3
DA:99,3
DA:101,3
DA:103,3
DA:104,3
DA:105,6
DA:108,3
DA:111,3
DA:113,3
DA:114,3
DA:118,12
DA:119,3
DA:120,3
DA:121,3
DA:124,12
DA:125,3
DA:126,3
DA:127,3
DA:131,12
DA:133,3
DA:134,3
DA:136,3
DA:138,3
DA:139,3
DA:140,3
DA:141,3
DA:144,3
DA:145,3
DA:147,3
DA:149,3
DA:150,3
DA:151,3
DA:152,3
DA:155,3
DA:156,3
DA:158,3
DA:160,3
DA:161,3
DA:162,3
DA:163,3
DA:164,3
DA:167,12
DA:168,3
DA:169,3
DA:171,3
DA:173,3
DA:174,3
DA:177,12
DA:178,3
DA:180,3
DA:182,6
DA:183,6
DA:185,3
DA:186,3
DA:189,12
DA:191,6
DA:192,6
DA:196,12
DA:201,12
DA:202,12
DA:203,12
DA:204,12
DA:207,12
DA:208,12
DA:210,36
DA:213,12
DA:216,12
DA:219,12
DA:220,12
DA:221,15
DA:224,3
DA:225,3
DA:226,3
DA:227,3
DA:228,3
DA:230,12
DA:232,3
DA:233,3
DA:236,3
DA:239,3
DA:240,3
DA:241,3
DA:242,3
DA:243,3
DA:245,12
DA:247,3
DA:248,3
DA:251,3
DA:252,3
DA:254,30
DA:255,30
DA:256,30
LF:124
LH:123
end_of_record
